target datalayout = "e-m:e-p270:32:32-p271:32:32-p272:64:64-i64:64-i128:128-f80:128-n8:16:32:64-S128"
target triple = "x86_64-pc-linux-gnu"

%struct.wl_callback_listener = type { ptr }
%struct.wl_interface = type { ptr, i32, i32, ptr, i32, ptr }
%struct.SDL_WaylandDataDevice = type { ptr, ptr, ptr, i32, ptr, ptr, ptr, i8, i8, ptr, i32, ptr }
%struct.SDL_WaylandDataOffer = type { ptr, %struct.wl_list, ptr, ptr, i32 }
%struct.wl_list = type { ptr, ptr }
%struct.SDL_MimeDataList = type { ptr, ptr, i64, %struct.wl_list }
%struct.SDL_WaylandSeat = type { ptr, ptr, ptr, ptr, ptr, %struct.wl_list, i32, i32, %struct.anon, %struct.anon.1, %struct.anon.4, %struct.anon.5, %struct.anon.6 }
%struct.anon = type { ptr, ptr, ptr, ptr, ptr, %struct.SDL_WaylandKeyboardRepeat, i64, i16, i16, i32, i8, %struct.anon.0 }
%struct.SDL_WaylandKeyboardRepeat = type { i32, i32, i32, i8, i8, i32, i64, i64, i64, i32, [8 x i8] }
%struct.anon.0 = type { ptr, ptr, ptr, ptr, i32, i32, i32, i32, i32, i32, i32, i32, i32, i32, i32 }
%struct.anon.1 = type { ptr, ptr, ptr, ptr, ptr, ptr, ptr, ptr, i64, i32, i32, %struct.SDL_Point, i32, %struct.anon.2, %struct.anon.3 }
%struct.SDL_Point = type { i32, i32 }
%struct.anon.2 = type { i32, float, i32, float, i64, i32 }
%struct.anon.3 = type { ptr, ptr, ptr, i64, i64, i32 }
%struct.anon.4 = type { ptr, ptr, i64, %struct.wl_list }
%struct.anon.5 = type { ptr, %struct.SDL_Rect, i8, i8 }
%struct.SDL_Rect = type { i32, i32, i32, i32 }
%struct.anon.6 = type { ptr, %struct.wl_list }
%struct.SDL_VideoData = type { i8, ptr, i32, ptr, ptr, ptr, ptr, i32, %struct.anon.7, ptr, ptr, ptr, ptr, ptr, ptr, ptr, ptr, ptr, ptr, ptr, ptr, ptr, ptr, ptr, ptr, ptr, ptr, ptr, ptr, ptr, ptr, %struct.wl_list, ptr, ptr, ptr, ptr, i32, i32, i8, i8 }
%struct.anon.7 = type { ptr }

@.str = private unnamed_addr constant [29 x i8] c"application/x-sdl3-source-id\00", align 1
@.str.3 = private unnamed_addr constant [34 x i8] c"unable to allocate new_mime_types\00", align 1
@.str.4 = private unnamed_addr constant [19 x i8] c"Invalid data offer\00", align 1
@.str.5 = private unnamed_addr constant [28 x i8] c"Data device not initialized\00", align 1
@.str.6 = private unnamed_addr constant [20 x i8] c"Could not read pipe\00", align 1
@WAYLAND_wl_display_flush = external global ptr, align 8
@WAYLAND_wl_proxy_marshal_flags = external global ptr, align 8
@WAYLAND_wl_proxy_get_version = external global ptr, align 8
@offer_source_listener = internal global %struct.wl_callback_listener { ptr @offer_source_done_handler }, align 8
@wl_callback_interface = external constant %struct.wl_interface, align 8
@WAYLAND_wl_proxy_add_listener = external global ptr, align 8
@WAYLAND_wl_proxy_destroy = external global ptr, align 8

; Function Attrs: inlinehint nounwind uwtable
define internal i32 @wl_callback_add_listener(ptr noundef %0, ptr noundef %1, ptr noundef %2) #3 {
  %4 = alloca ptr, align 8
  %5 = alloca ptr, align 8
  %6 = alloca ptr, align 8
  store ptr %0, ptr %4, align 8
  store ptr %1, ptr %5, align 8
  store ptr %2, ptr %6, align 8
  %7 = load ptr, ptr @WAYLAND_wl_proxy_add_listener, align 8
  %8 = load ptr, ptr %4, align 8
  %9 = load ptr, ptr %5, align 8
  %10 = load ptr, ptr %6, align 8
  %11 = call i32 %7(ptr noundef %8, ptr noundef %9, ptr noundef %10)
  ret i32 %11
}

; Function Attrs: inlinehint nounwind uwtable
define internal ptr @wl_display_sync(ptr noundef %0) #3 {
  %2 = alloca ptr, align 8
  %3 = alloca ptr, align 8
  store ptr %0, ptr %2, align 8
  call void @llvm.lifetime.start.p0(i64 8, ptr %3) #9
  %4 = load ptr, ptr @WAYLAND_wl_proxy_marshal_flags, align 8
  %5 = load ptr, ptr %2, align 8
  %6 = load ptr, ptr @WAYLAND_wl_proxy_get_version, align 8
  %7 = load ptr, ptr %2, align 8
  %8 = call i32 %6(ptr noundef %7)
  %9 = call ptr (ptr, i32, ptr, i32, i32, ...) %4(ptr noundef %5, i32 noundef 0, ptr noundef @wl_callback_interface, i32 noundef %8, i32 noundef 0, ptr noundef null)
  store ptr %9, ptr %3, align 8
  %10 = load ptr, ptr %3, align 8
  call void @llvm.lifetime.end.p0(i64 8, ptr %3) #9
  ret ptr %10
}

; Function Attrs: inlinehint nounwind uwtable
define internal void @wl_data_offer_receive(ptr noundef %0, ptr noundef %1, i32 noundef %2) #3 {
  %4 = alloca ptr, align 8
  %5 = alloca ptr, align 8
  %6 = alloca i32, align 4
  store ptr %0, ptr %4, align 8
  store ptr %1, ptr %5, align 8
  store i32 %2, ptr %6, align 4
  %7 = load ptr, ptr @WAYLAND_wl_proxy_marshal_flags, align 8
  %8 = load ptr, ptr %4, align 8
  %9 = load ptr, ptr @WAYLAND_wl_proxy_get_version, align 8
  %10 = load ptr, ptr %4, align 8
  %11 = call i32 %9(ptr noundef %10)
  %12 = load ptr, ptr %5, align 8
  %13 = load i32, ptr %6, align 4
  %14 = call ptr (ptr, i32, ptr, i32, i32, ...) %7(ptr noundef %8, i32 noundef 1, ptr noundef null, i32 noundef %11, i32 noundef 0, ptr noundef %12, i32 noundef %13)
  ret void
}

; Function Attrs: inlinehint nounwind uwtable
define internal void @wl_callback_destroy(ptr noundef %0) #3 {
  %2 = alloca ptr, align 8
  store ptr %0, ptr %2, align 8
  %3 = load ptr, ptr @WAYLAND_wl_proxy_destroy, align 8
  %4 = load ptr, ptr %2, align 8
  call void %3(ptr noundef %4)
  ret void
}

; Function Attrs: nounwind uwtable
define internal void @Wayland_data_offer_check_source(ptr noundef %0, ptr noundef %1) #0 {
  %3 = alloca ptr, align 8
  %4 = alloca ptr, align 8
  %5 = alloca ptr, align 8
  %6 = alloca [2 x i32], align 4
  store ptr %0, ptr %3, align 8
  store ptr %1, ptr %4, align 8
  call void @llvm.lifetime.start.p0(i64 8, ptr %5) #9
  store ptr null, ptr %5, align 8
  call void @llvm.lifetime.start.p0(i64 8, ptr %6) #9
  %7 = load ptr, ptr %3, align 8
  %8 = icmp ne ptr %7, null
  br i1 %8, label %11, label %9

9:                                                ; preds = %2
  %10 = call zeroext i1 (ptr, ...) @SDL_SetError_REAL(ptr noundef @.str.4)
  br label %11

11:                                               ; preds = %9, %2
  %12 = load ptr, ptr %3, align 8
  %13 = getelementptr inbounds nuw %struct.SDL_WaylandDataOffer, ptr %12, i32 0, i32 2
  %14 = load ptr, ptr %13, align 8
  store ptr %14, ptr %5, align 8
  %15 = load ptr, ptr %5, align 8
  %16 = icmp ne ptr %15, null
  br i1 %16, label %19, label %17

17:                                               ; preds = %11
  %18 = call zeroext i1 (ptr, ...) @SDL_SetError_REAL(ptr noundef @.str.5)
  br label %85

19:                                               ; preds = %11
  %20 = getelementptr inbounds [2 x i32], ptr %6, i64 0, i64 0
  %21 = call i32 @pipe2(ptr noundef %20, i32 noundef 526336) #9
  %22 = icmp eq i32 %21, -1
  br i1 %22, label %23, label %25

23:                                               ; preds = %19
  %24 = call zeroext i1 (ptr, ...) @SDL_SetError_REAL(ptr noundef @.str.6)
  br label %84

25:                                               ; preds = %19
  %26 = load ptr, ptr %3, align 8
  %27 = getelementptr inbounds nuw %struct.SDL_WaylandDataOffer, ptr %26, i32 0, i32 3
  %28 = load ptr, ptr %27, align 8
  %29 = icmp ne ptr %28, null
  br i1 %29, label %30, label %34

30:                                               ; preds = %25
  %31 = load ptr, ptr %3, align 8
  %32 = getelementptr inbounds nuw %struct.SDL_WaylandDataOffer, ptr %31, i32 0, i32 3
  %33 = load ptr, ptr %32, align 8
  call void @wl_callback_destroy(ptr noundef %33)
  br label %34

34:                                               ; preds = %30, %25
  %35 = load ptr, ptr %3, align 8
  %36 = getelementptr inbounds nuw %struct.SDL_WaylandDataOffer, ptr %35, i32 0, i32 4
  %37 = load i32, ptr %36, align 8
  %38 = icmp sge i32 %37, 0
  br i1 %38, label %39, label %44

39:                                               ; preds = %34
  %40 = load ptr, ptr %3, align 8
  %41 = getelementptr inbounds nuw %struct.SDL_WaylandDataOffer, ptr %40, i32 0, i32 4
  %42 = load i32, ptr %41, align 8
  %43 = call i32 @close(i32 noundef %42)
  br label %44

44:                                               ; preds = %39, %34
  %45 = getelementptr inbounds [2 x i32], ptr %6, i64 0, i64 0
  %46 = load i32, ptr %45, align 4
  %47 = load ptr, ptr %3, align 8
  %48 = getelementptr inbounds nuw %struct.SDL_WaylandDataOffer, ptr %47, i32 0, i32 4
  store i32 %46, ptr %48, align 8
  %49 = load ptr, ptr %3, align 8
  %50 = getelementptr inbounds nuw %struct.SDL_WaylandDataOffer, ptr %49, i32 0, i32 0
  %51 = load ptr, ptr %50, align 8
  %52 = load ptr, ptr %4, align 8
  %53 = getelementptr inbounds [2 x i32], ptr %6, i64 0, i64 1
  %54 = load i32, ptr %53, align 4
  call void @wl_data_offer_receive(ptr noundef %51, ptr noundef %52, i32 noundef %54)
  %55 = getelementptr inbounds [2 x i32], ptr %6, i64 0, i64 1
  %56 = load i32, ptr %55, align 4
  %57 = call i32 @close(i32 noundef %56)
  %58 = load ptr, ptr %3, align 8
  %59 = getelementptr inbounds nuw %struct.SDL_WaylandDataOffer, ptr %58, i32 0, i32 2
  %60 = load ptr, ptr %59, align 8
  %61 = getelementptr inbounds nuw %struct.SDL_WaylandDataDevice, ptr %60, i32 0, i32 1
  %62 = load ptr, ptr %61, align 8
  %63 = getelementptr inbounds nuw %struct.SDL_WaylandSeat, ptr %62, i32 0, i32 0
  %64 = load ptr, ptr %63, align 8
  %65 = getelementptr inbounds nuw %struct.SDL_VideoData, ptr %64, i32 0, i32 1
  %66 = load ptr, ptr %65, align 8
  %67 = call ptr @wl_display_sync(ptr noundef %66)
  %68 = load ptr, ptr %3, align 8
  %69 = getelementptr inbounds nuw %struct.SDL_WaylandDataOffer, ptr %68, i32 0, i32 3
  store ptr %67, ptr %69, align 8
  %70 = load ptr, ptr %3, align 8
  %71 = getelementptr inbounds nuw %struct.SDL_WaylandDataOffer, ptr %70, i32 0, i32 3
  %72 = load ptr, ptr %71, align 8
  %73 = load ptr, ptr %3, align 8
  %74 = call i32 @wl_callback_add_listener(ptr noundef %72, ptr noundef @offer_source_listener, ptr noundef %73)
  %75 = load ptr, ptr @WAYLAND_wl_display_flush, align 8
  %76 = load ptr, ptr %5, align 8
  %77 = getelementptr inbounds nuw %struct.SDL_WaylandDataDevice, ptr %76, i32 0, i32 1
  %78 = load ptr, ptr %77, align 8
  %79 = getelementptr inbounds nuw %struct.SDL_WaylandSeat, ptr %78, i32 0, i32 0
  %80 = load ptr, ptr %79, align 8
  %81 = getelementptr inbounds nuw %struct.SDL_VideoData, ptr %80, i32 0, i32 1
  %82 = load ptr, ptr %81, align 8
  %83 = call i32 %75(ptr noundef %82)
  br label %84

84:                                               ; preds = %44, %23
  br label %85

85:                                               ; preds = %84, %17
  call void @llvm.lifetime.end.p0(i64 8, ptr %6) #9
  call void @llvm.lifetime.end.p0(i64 8, ptr %5) #9
  ret void
}

; Function Attrs: nounwind uwtable
define hidden void @Wayland_data_offer_notify_from_mimes(ptr noundef %0, i1 noundef zeroext %1) #0 {
  %3 = alloca ptr, align 8
  %4 = alloca i8, align 1
  %5 = alloca i32, align 4
  %6 = alloca ptr, align 8
  %7 = alloca i64, align 8
  %8 = alloca ptr, align 8
  %9 = alloca i32, align 4
  %10 = alloca ptr, align 8
  %11 = alloca i32, align 4
  store ptr %0, ptr %3, align 8
  %12 = zext i1 %1 to i8
  store i8 %12, ptr %4, align 1
  call void @llvm.lifetime.start.p0(i64 4, ptr %5) #9
  store i32 0, ptr %5, align 4
  call void @llvm.lifetime.start.p0(i64 8, ptr %6) #9
  store ptr null, ptr %6, align 8
  %13 = load ptr, ptr %3, align 8
  %14 = icmp ne ptr %13, null
  br i1 %14, label %15, label %114

15:                                               ; preds = %2
  call void @llvm.lifetime.start.p0(i64 8, ptr %7) #9
  store i64 0, ptr %7, align 8
  call void @llvm.lifetime.start.p0(i64 8, ptr %8) #9
  store ptr null, ptr %8, align 8
  %16 = load ptr, ptr %3, align 8
  %17 = getelementptr inbounds nuw %struct.SDL_WaylandDataOffer, ptr %16, i32 0, i32 1
  %18 = getelementptr inbounds nuw %struct.wl_list, ptr %17, i32 0, i32 1
  %19 = load ptr, ptr %18, align 8
  %20 = getelementptr inbounds i8, ptr %19, i64 -24
  store ptr %20, ptr %8, align 8
  br label %21

21:                                               ; preds = %51, %15
  %22 = load ptr, ptr %8, align 8
  %23 = getelementptr inbounds nuw %struct.SDL_MimeDataList, ptr %22, i32 0, i32 3
  %24 = load ptr, ptr %3, align 8
  %25 = getelementptr inbounds nuw %struct.SDL_WaylandDataOffer, ptr %24, i32 0, i32 1
  %26 = icmp ne ptr %23, %25
  br i1 %26, label %27, label %57

27:                                               ; preds = %21
  %28 = load i8, ptr %4, align 1, !range !5, !noundef !6
  %29 = trunc i8 %28 to i1
  br i1 %29, label %30, label %41

30:                                               ; preds = %27
  %31 = load ptr, ptr %8, align 8
  %32 = getelementptr inbounds nuw %struct.SDL_MimeDataList, ptr %31, i32 0, i32 0
  %33 = load ptr, ptr %32, align 8
  %34 = call i32 @SDL_strcmp_REAL(ptr noundef %33, ptr noundef @.str)
  %35 = icmp eq i32 %34, 0
  br i1 %35, label %36, label %41

36:                                               ; preds = %30
  %37 = load ptr, ptr %3, align 8
  %38 = load ptr, ptr %8, align 8
  %39 = getelementptr inbounds nuw %struct.SDL_MimeDataList, ptr %38, i32 0, i32 0
  %40 = load ptr, ptr %39, align 8
  call void @Wayland_data_offer_check_source(ptr noundef %37, ptr noundef %40)
  store i32 1, ptr %9, align 4
  br label %111

41:                                               ; preds = %30, %27
  %42 = load i32, ptr %5, align 4
  %43 = add nsw i32 %42, 1
  store i32 %43, ptr %5, align 4
  %44 = load ptr, ptr %8, align 8
  %45 = getelementptr inbounds nuw %struct.SDL_MimeDataList, ptr %44, i32 0, i32 0
  %46 = load ptr, ptr %45, align 8
  %47 = call i64 @SDL_strlen_REAL(ptr noundef %46)
  %48 = add i64 %47, 1
  %49 = load i64, ptr %7, align 8
  %50 = add i64 %49, %48
  store i64 %50, ptr %7, align 8
  br label %51

51:                                               ; preds = %41
  %52 = load ptr, ptr %8, align 8
  %53 = getelementptr inbounds nuw %struct.SDL_MimeDataList, ptr %52, i32 0, i32 3
  %54 = getelementptr inbounds nuw %struct.wl_list, ptr %53, i32 0, i32 1
  %55 = load ptr, ptr %54, align 8
  %56 = getelementptr inbounds i8, ptr %55, i64 -24
  store ptr %56, ptr %8, align 8
  br label %21, !llvm.loop !7

57:                                               ; preds = %21
  %58 = load i32, ptr %5, align 4
  %59 = add nsw i32 %58, 1
  %60 = sext i32 %59 to i64
  %61 = mul i64 %60, 8
  %62 = load i64, ptr %7, align 8
  %63 = add i64 %62, %61
  store i64 %63, ptr %7, align 8
  %64 = load i64, ptr %7, align 8
  %65 = call ptr @SDL_AllocateTemporaryMemory(i64 noundef %64)
  store ptr %65, ptr %6, align 8
  %66 = load ptr, ptr %6, align 8
  %67 = icmp ne ptr %66, null
  br i1 %67, label %69, label %68

68:                                               ; preds = %57
  call void (i32, ptr, ...) @SDL_LogError_REAL(i32 noundef 7, ptr noundef @.str.3)
  store i32 1, ptr %9, align 4
  br label %111

69:                                               ; preds = %57
  call void @llvm.lifetime.start.p0(i64 8, ptr %10) #9
  %70 = load ptr, ptr %6, align 8
  %71 = load i32, ptr %5, align 4
  %72 = sext i32 %71 to i64
  %73 = getelementptr inbounds ptr, ptr %70, i64 %72
  %74 = getelementptr inbounds ptr, ptr %73, i64 1
  store ptr %74, ptr %10, align 8
  store ptr null, ptr %8, align 8
  call void @llvm.lifetime.start.p0(i64 4, ptr %11) #9
  store i32 0, ptr %11, align 4
  %75 = load ptr, ptr %3, align 8
  %76 = getelementptr inbounds nuw %struct.SDL_WaylandDataOffer, ptr %75, i32 0, i32 1
  %77 = getelementptr inbounds nuw %struct.wl_list, ptr %76, i32 0, i32 1
  %78 = load ptr, ptr %77, align 8
  %79 = getelementptr inbounds i8, ptr %78, i64 -24
  store ptr %79, ptr %8, align 8
  br label %80

80:                                               ; preds = %100, %69
  %81 = load ptr, ptr %8, align 8
  %82 = getelementptr inbounds nuw %struct.SDL_MimeDataList, ptr %81, i32 0, i32 3
  %83 = load ptr, ptr %3, align 8
  %84 = getelementptr inbounds nuw %struct.SDL_WaylandDataOffer, ptr %83, i32 0, i32 1
  %85 = icmp ne ptr %82, %84
  br i1 %85, label %86, label %106

86:                                               ; preds = %80
  %87 = load ptr, ptr %10, align 8
  %88 = load ptr, ptr %6, align 8
  %89 = load i32, ptr %11, align 4
  %90 = sext i32 %89 to i64
  %91 = getelementptr inbounds ptr, ptr %88, i64 %90
  store ptr %87, ptr %91, align 8
  %92 = load ptr, ptr %10, align 8
  %93 = load ptr, ptr %8, align 8
  %94 = getelementptr inbounds nuw %struct.SDL_MimeDataList, ptr %93, i32 0, i32 0
  %95 = load ptr, ptr %94, align 8
  %96 = call ptr @stpcpy(ptr noundef %92, ptr noundef %95) #9
  %97 = getelementptr inbounds i8, ptr %96, i64 1
  store ptr %97, ptr %10, align 8
  %98 = load i32, ptr %11, align 4
  %99 = add nsw i32 %98, 1
  store i32 %99, ptr %11, align 4
  br label %100

100:                                              ; preds = %86
  %101 = load ptr, ptr %8, align 8
  %102 = getelementptr inbounds nuw %struct.SDL_MimeDataList, ptr %101, i32 0, i32 3
  %103 = getelementptr inbounds nuw %struct.wl_list, ptr %102, i32 0, i32 1
  %104 = load ptr, ptr %103, align 8
  %105 = getelementptr inbounds i8, ptr %104, i64 -24
  store ptr %105, ptr %8, align 8
  br label %80, !llvm.loop !8

106:                                              ; preds = %80
  %107 = load ptr, ptr %6, align 8
  %108 = load i32, ptr %5, align 4
  %109 = sext i32 %108 to i64
  %110 = getelementptr inbounds ptr, ptr %107, i64 %109
  store ptr null, ptr %110, align 8
  call void @llvm.lifetime.end.p0(i64 4, ptr %11) #9
  call void @llvm.lifetime.end.p0(i64 8, ptr %10) #9
  store i32 0, ptr %9, align 4
  br label %111

111:                                              ; preds = %106, %68, %36
  call void @llvm.lifetime.end.p0(i64 8, ptr %8) #9
  call void @llvm.lifetime.end.p0(i64 8, ptr %7) #9
  %112 = load i32, ptr %9, align 4
  switch i32 %112, label %118 [
    i32 0, label %113
  ]

113:                                              ; preds = %111
  br label %114

114:                                              ; preds = %113, %2
  %115 = load ptr, ptr %6, align 8
  %116 = load i32, ptr %5, align 4
  %117 = sext i32 %116 to i64
  call void @SDL_SendClipboardUpdate(i1 noundef zeroext false, ptr noundef %115, i64 noundef %117)
  store i32 0, ptr %9, align 4
  br label %118

118:                                              ; preds = %114, %111
  call void @llvm.lifetime.end.p0(i64 8, ptr %6) #9
  call void @llvm.lifetime.end.p0(i64 4, ptr %5) #9
  %119 = load i32, ptr %9, align 4
  switch i32 %119, label %121 [
    i32 0, label %120
    i32 1, label %120
  ]

120:                                              ; preds = %118, %118
  ret void

121:                                              ; preds = %118
  unreachable
}