; Function Attrs: nounwind uwtable
define hidden void @Wayland_data_offer_notify_from_mimes(ptr noundef %0, i1 noundef zeroext %1) local_unnamed_addr #0 {
  %3 = alloca [2 x i32], align 4
  %.not = icmp eq ptr %0, null
  br i1 %.not, label %89, label %4

4:                                                ; preds = %2
  %5 = getelementptr inbounds nuw i8, ptr %0, i64 8
  %6 = getelementptr inbounds nuw i8, ptr %0, i64 16
  %.pn55 = load ptr, ptr %6, align 8
  %.not4657 = icmp eq ptr %.pn55, %5
  br i1 %.not4657, label %._crit_edge, label %.lr.ph

.lr.ph:                                           ; preds = %4
  %.03456 = getelementptr inbounds i8, ptr %.pn55, i64 -24
  br i1 %1, label %.lr.ph.split.us, label %.lr.ph.split

.lr.ph.split.us:                                  ; preds = %.lr.ph, %10
  %.03461.us = phi ptr [ %.034.us, %10 ], [ %.03456, %.lr.ph ]
  %.pn60.us = phi ptr [ %.pn.us, %10 ], [ %.pn55, %.lr.ph ]
  %.03559.us = phi i64 [ %15, %10 ], [ 0, %.lr.ph ]
  %.13958.us = phi i32 [ %11, %10 ], [ 0, %.lr.ph ]
  %7 = load ptr, ptr %.03461.us, align 8
  %8 = tail call i32 @SDL_strcmp_REAL(ptr noundef %7, ptr noundef nonnull @.str) #12
  %9 = icmp eq i32 %8, 0
  br i1 %9, label %.split.us, label %10

10:                                               ; preds = %.lr.ph.split.us
  %11 = add nuw nsw i32 %.13958.us, 1
  %12 = load ptr, ptr %.03461.us, align 8
  %13 = tail call i64 @SDL_strlen_REAL(ptr noundef %12) #12
  %14 = add i64 %.03559.us, 1
  %15 = add i64 %14, %13
  %16 = getelementptr inbounds nuw i8, ptr %.pn60.us, i64 8
  %.pn.us = load ptr, ptr %16, align 8
  %.034.us = getelementptr inbounds i8, ptr %.pn.us, i64 -24
  %.not46.us = icmp eq ptr %.pn.us, %5
  br i1 %.not46.us, label %._crit_edge, label %.lr.ph.split.us, !llvm.loop !5

.lr.ph.split:                                     ; preds = %.lr.ph, %.lr.ph.split
  %.03461 = phi ptr [ %.034, %.lr.ph.split ], [ %.03456, %.lr.ph ]
  %.pn60 = phi ptr [ %.pn, %.lr.ph.split ], [ %.pn55, %.lr.ph ]
  %.03559 = phi i64 [ %21, %.lr.ph.split ], [ 0, %.lr.ph ]
  %.13958 = phi i32 [ %17, %.lr.ph.split ], [ 0, %.lr.ph ]
  %17 = add nuw nsw i32 %.13958, 1
  %18 = load ptr, ptr %.03461, align 8
  %19 = tail call i64 @SDL_strlen_REAL(ptr noundef %18) #12
  %20 = add i64 %.03559, 1
  %21 = add i64 %20, %19
  %22 = getelementptr inbounds nuw i8, ptr %.pn60, i64 8
  %.pn = load ptr, ptr %22, align 8
  %.034 = getelementptr inbounds i8, ptr %.pn, i64 -24
  %.not46 = icmp eq ptr %.pn, %5
  br i1 %.not46, label %._crit_edge, label %.lr.ph.split, !llvm.loop !5

.split.us:                                        ; preds = %.lr.ph.split.us
  %23 = load ptr, ptr %.03461.us, align 8
  call void @llvm.lifetime.start.p0(i64 8, ptr nonnull %3) #12
  %24 = getelementptr inbounds nuw i8, ptr %0, i64 24
  %25 = load ptr, ptr %24, align 8
  %.not.i = icmp eq ptr %25, null
  br i1 %.not.i, label %26, label %28

26:                                               ; preds = %.split.us
  %27 = tail call zeroext i1 (ptr, ...) @SDL_SetError_REAL(ptr noundef nonnull @.str.5) #12
  br label %Wayland_data_offer_check_source.exit

28:                                               ; preds = %.split.us
  %29 = call i32 @pipe2(ptr noundef nonnull %3, i32 noundef 526336) #12
  %30 = icmp eq i32 %29, -1
  br i1 %30, label %31, label %33

31:                                               ; preds = %28
  %32 = call zeroext i1 (ptr, ...) @SDL_SetError_REAL(ptr noundef nonnull @.str.6) #12
  br label %Wayland_data_offer_check_source.exit

33:                                               ; preds = %28
  %34 = getelementptr inbounds nuw i8, ptr %0, i64 32
  %35 = load ptr, ptr %34, align 8
  %.not17.i = icmp eq ptr %35, null
  br i1 %.not17.i, label %38, label %36

36:                                               ; preds = %33
  %37 = load ptr, ptr @WAYLAND_wl_proxy_destroy, align 8
  call void %37(ptr noundef nonnull %35) #12
  br label %38

38:                                               ; preds = %36, %33
  %39 = getelementptr inbounds nuw i8, ptr %0, i64 40
  %40 = load i32, ptr %39, align 8
  %41 = icmp sgt i32 %40, -1
  br i1 %41, label %42, label %44

42:                                               ; preds = %38
  %43 = call i32 @close(i32 noundef %40) #12
  br label %44

44:                                               ; preds = %42, %38
  %45 = load i32, ptr %3, align 4
  store i32 %45, ptr %39, align 8
  %46 = load ptr, ptr %0, align 8
  %47 = getelementptr inbounds nuw i8, ptr %3, i64 4
  %48 = load i32, ptr %47, align 4
  %49 = load ptr, ptr @WAYLAND_wl_proxy_marshal_flags, align 8
  %50 = load ptr, ptr @WAYLAND_wl_proxy_get_version, align 8
  %51 = call i32 %50(ptr noundef %46) #12
  %52 = call ptr (ptr, i32, ptr, i32, i32, ...) %49(ptr noundef %46, i32 noundef 1, ptr noundef null, i32 noundef %51, i32 noundef 0, ptr noundef %23, i32 noundef %48) #12
  %53 = load i32, ptr %47, align 4
  %54 = call i32 @close(i32 noundef %53) #12
  %55 = load ptr, ptr %24, align 8
  %56 = getelementptr inbounds nuw i8, ptr %55, i64 8
  %57 = load ptr, ptr %56, align 8
  %58 = load ptr, ptr %57, align 8
  %59 = getelementptr inbounds nuw i8, ptr %58, i64 8
  %60 = load ptr, ptr %59, align 8
  %61 = load ptr, ptr @WAYLAND_wl_proxy_marshal_flags, align 8
  %62 = load ptr, ptr @WAYLAND_wl_proxy_get_version, align 8
  %63 = call i32 %62(ptr noundef %60) #12
  %64 = call ptr (ptr, i32, ptr, i32, i32, ...) %61(ptr noundef %60, i32 noundef 0, ptr noundef nonnull @wl_callback_interface, i32 noundef %63, i32 noundef 0, ptr noundef null) #12
  store ptr %64, ptr %34, align 8
  %65 = load ptr, ptr @WAYLAND_wl_proxy_add_listener, align 8
  %66 = call i32 %65(ptr noundef %64, ptr noundef nonnull @offer_source_listener, ptr noundef nonnull %0) #12
  %67 = load ptr, ptr @WAYLAND_wl_display_flush, align 8
  %68 = getelementptr inbounds nuw i8, ptr %25, i64 8
  %69 = load ptr, ptr %68, align 8
  %70 = load ptr, ptr %69, align 8
  %71 = getelementptr inbounds nuw i8, ptr %70, i64 8
  %72 = load ptr, ptr %71, align 8
  %73 = call i32 %67(ptr noundef %72) #12
  br label %Wayland_data_offer_check_source.exit

Wayland_data_offer_check_source.exit:             ; preds = %26, %31, %44
  call void @llvm.lifetime.end.p0(i64 8, ptr nonnull %3) #12
  br label %.thread

._crit_edge:                                      ; preds = %.lr.ph.split, %10, %4
  %.139.lcssa = phi i32 [ 0, %4 ], [ %11, %10 ], [ %17, %.lr.ph.split ]
  %.035.lcssa = phi i64 [ 0, %4 ], [ %15, %10 ], [ %21, %.lr.ph.split ]
  %74 = add nuw nsw i32 %.139.lcssa, 1
  %75 = zext nneg i32 %74 to i64
  %76 = shl nuw nsw i64 %75, 3
  %77 = add i64 %76, %.035.lcssa
  %78 = tail call ptr @SDL_AllocateTemporaryMemory(i64 noundef %77) #12
  %.not47 = icmp eq ptr %78, null
  br i1 %.not47, label %79, label %80

79:                                               ; preds = %._crit_edge
  tail call void (i32, ptr, ...) @SDL_LogError_REAL(i32 noundef 7, ptr noundef nonnull @.str.3) #12
  br label %.thread

80:                                               ; preds = %._crit_edge
  %81 = zext nneg i32 %.139.lcssa to i64
  %82 = getelementptr inbounds nuw ptr, ptr %78, i64 %81
  %.pn4865 = load ptr, ptr %6, align 8
  %.not4966 = icmp eq ptr %.pn4865, %5
  br i1 %.not4966, label %._crit_edge72, label %.lr.ph71.preheader

.lr.ph71.preheader:                               ; preds = %80
  %83 = getelementptr inbounds nuw i8, ptr %82, i64 8
  br label %.lr.ph71

.lr.ph71:                                         ; preds = %.lr.ph71.preheader, %.lr.ph71
  %indvars.iv = phi i64 [ 0, %.lr.ph71.preheader ], [ %indvars.iv.next, %.lr.ph71 ]
  %.pn4869 = phi ptr [ %.pn4865, %.lr.ph71.preheader ], [ %.pn48, %.lr.ph71 ]
  %.03267 = phi ptr [ %83, %.lr.ph71.preheader ], [ %87, %.lr.ph71 ]
  %.1 = getelementptr inbounds i8, ptr %.pn4869, i64 -24
  %84 = getelementptr inbounds nuw ptr, ptr %78, i64 %indvars.iv
  store ptr %.03267, ptr %84, align 8
  %85 = load ptr, ptr %.1, align 8
  %86 = tail call ptr @stpcpy(ptr noundef nonnull %.03267, ptr noundef %85) #12
  %87 = getelementptr inbounds nuw i8, ptr %86, i64 1
  %indvars.iv.next = add nuw nsw i64 %indvars.iv, 1
  %88 = getelementptr inbounds nuw i8, ptr %.pn4869, i64 8
  %.pn48 = load ptr, ptr %88, align 8
  %.not49 = icmp eq ptr %.pn48, %5
  br i1 %.not49, label %._crit_edge72, label %.lr.ph71, !llvm.loop !6

._crit_edge72:                                    ; preds = %.lr.ph71, %80
  store ptr null, ptr %82, align 8
  br label %89

89:                                               ; preds = %._crit_edge72, %2
  %.038 = phi i64 [ %81, %._crit_edge72 ], [ 0, %2 ]
  %.036 = phi ptr [ %78, %._crit_edge72 ], [ null, %2 ]
  tail call void @SDL_SendClipboardUpdate(i1 noundef zeroext false, ptr noundef %.036, i64 noundef %.038) #12
  br label %.thread

.thread:                                          ; preds = %79, %Wayland_data_offer_check_source.exit, %89
  ret void
}